; Function Attrs: mustprogress uwtable
define hidden void @_ZN4lean2ir20mk_dummy_extern_declERKNS_4nameERKNS_6bufferINS_10object_refELm16EEENS0_4typeE(ptr dead_on_unwind noalias writable writeonly sret(%"class.lean::object_ref") align 8 captures(none) %0, ptr noundef nonnull readonly align 8 captures(none) dereferenceable(8) %1, ptr noundef nonnull readonly align 8 captures(none) dereferenceable(152) %2, i32 noundef %3) local_unnamed_addr #0 {
  %5 = load ptr, ptr %1, align 8, !tbaa !3
  %6 = ptrtoint ptr %5 to i64
  %7 = and i64 %6, 1
  %.not.i.i = icmp eq i64 %7, 0
  br i1 %.not.i.i, label %8, label %_ZNK4lean10object_ref10to_obj_argEv.exit

8:                                                ; preds = %4
  %.val.i.i.i = load i32, ptr %5, align 4, !tbaa !8
  %9 = icmp sgt i32 %.val.i.i.i, 0
  br i1 %9, label %10, label %12, !prof !11

10:                                               ; preds = %8
  %11 = add nuw nsw i32 %.val.i.i.i, 1
  store i32 %11, ptr %5, align 4, !tbaa !8
  br label %_ZNK4lean10object_ref10to_obj_argEv.exit

12:                                               ; preds = %8
  %.not.i.i.i = icmp eq i32 %.val.i.i.i, 0
  br i1 %.not.i.i.i, label %_ZNK4lean10object_ref10to_obj_argEv.exit, label %13

13:                                               ; preds = %12
  tail call void @lean_inc_ref_cold(ptr noundef nonnull %5)
  %.pre.i = load ptr, ptr %1, align 8, !tbaa !3
  br label %_ZNK4lean10object_ref10to_obj_argEv.exit

_ZNK4lean10object_ref10to_obj_argEv.exit:         ; preds = %4, %10, %12, %13
  %14 = phi ptr [ %5, %4 ], [ %5, %10 ], [ %5, %12 ], [ %.pre.i, %13 ]
  %15 = getelementptr inbounds nuw i8, ptr %2, i64 8
  %16 = load i64, ptr %15, align 8, !tbaa !13
  %17 = shl i64 %16, 3
  %18 = add i64 %17, 24
  %19 = tail call ptr @lean_alloc_object(i64 noundef %18)
  store i32 1, ptr %19, align 4, !tbaa !8
  %20 = getelementptr inbounds nuw i8, ptr %19, i64 4
  %21 = load i32, ptr %20, align 4
  %22 = and i32 %21, 65535
  %23 = or disjoint i32 %22, -167772160
  store i32 %23, ptr %20, align 4
  %24 = getelementptr inbounds nuw i8, ptr %19, i64 8
  store i64 %16, ptr %24, align 8, !tbaa !17
  %25 = getelementptr inbounds nuw i8, ptr %19, i64 16
  store i64 %16, ptr %25, align 8, !tbaa !17
  %26 = load ptr, ptr %2, align 8, !tbaa !18
  %27 = load i64, ptr %15, align 8, !tbaa !13
  %28 = getelementptr inbounds nuw %"class.lean::object_ref", ptr %26, i64 %27
  %.not15.i = icmp eq i64 %27, 0
  br i1 %.not15.i, label %_ZN4lean8to_arrayINS_6bufferINS_10object_refELm16EEEEEP11lean_objectRKT_.exit, label %.lr.ph.i

.lr.ph.i:                                         ; preds = %_ZNK4lean10object_ref10to_obj_argEv.exit
  %29 = getelementptr inbounds nuw i8, ptr %19, i64 24
  br label %30

30:                                               ; preds = %_ZN4lean3incEP11lean_object.exit.i, %.lr.ph.i
  %.017.i = phi i64 [ 0, %.lr.ph.i ], [ %42, %_ZN4lean3incEP11lean_object.exit.i ]
  %.01416.i = phi ptr [ %26, %.lr.ph.i ], [ %43, %_ZN4lean3incEP11lean_object.exit.i ]
  %31 = load ptr, ptr %.01416.i, align 8, !tbaa !3
  %32 = ptrtoint ptr %31 to i64
  %33 = and i64 %32, 1
  %.not.i.i2 = icmp eq i64 %33, 0
  br i1 %.not.i.i2, label %34, label %_ZN4lean3incEP11lean_object.exit.i

34:                                               ; preds = %30
  %.val.i.i.i3 = load i32, ptr %31, align 4, !tbaa !8
  %35 = icmp sgt i32 %.val.i.i.i3, 0
  br i1 %35, label %36, label %38, !prof !11

36:                                               ; preds = %34
  %37 = add nuw nsw i32 %.val.i.i.i3, 1
  store i32 %37, ptr %31, align 4, !tbaa !8
  br label %_ZN4lean3incEP11lean_object.exit.i

38:                                               ; preds = %34
  %.not.i.i.i4 = icmp eq i32 %.val.i.i.i3, 0
  br i1 %.not.i.i.i4, label %_ZN4lean3incEP11lean_object.exit.i, label %39

39:                                               ; preds = %38
  tail call void @lean_inc_ref_cold(ptr noundef nonnull %31)
  %.pre.i5 = load ptr, ptr %.01416.i, align 8, !tbaa !3
  br label %_ZN4lean3incEP11lean_object.exit.i

_ZN4lean3incEP11lean_object.exit.i:               ; preds = %39, %38, %36, %30
  %40 = phi ptr [ %31, %30 ], [ %31, %36 ], [ %31, %38 ], [ %.pre.i5, %39 ]
  %41 = getelementptr inbounds nuw [0 x ptr], ptr %29, i64 0, i64 %.017.i
  store ptr %40, ptr %41, align 8, !tbaa !12
  %42 = add nuw nsw i64 %.017.i, 1
  %43 = getelementptr inbounds nuw i8, ptr %.01416.i, i64 8
  %.not.i = icmp eq ptr %43, %28
  br i1 %.not.i, label %_ZN4lean8to_arrayINS_6bufferINS_10object_refELm16EEEEEP11lean_objectRKT_.exit, label %30

_ZN4lean8to_arrayINS_6bufferINS_10object_refELm16EEEEEP11lean_objectRKT_.exit: ; preds = %_ZN4lean3incEP11lean_object.exit.i, %_ZNK4lean10object_ref10to_obj_argEv.exit
  %44 = sext i32 %3 to i64
  %45 = shl nsw i64 %44, 1
  %46 = or disjoint i64 %45, 1
  %47 = inttoptr i64 %46 to ptr
  %48 = tail call ptr @lean_ir_mk_dummy_extern_decl(ptr noundef %14, ptr noundef nonnull %19, ptr noundef nonnull %47)
  store ptr %48, ptr %0, align 8, !tbaa !3
  ret void
}